; ModuleID = '8/170.c'
source_filename = "8/170.c"
target datalayout = "e-m:e-p270:32:32-p271:32:32-p272:64:64-i64:64-f80:128-n8:16:32:64-S128"
target triple = "x86_64-pc-linux-gnu"

@.str = private unnamed_addr constant [6 x i8] c"%d %d\00", align 1
@.str.1 = private unnamed_addr constant [3 x i8] c"%d\00", align 1
@.str.2 = private unnamed_addr constant [4 x i8] c"%d \00", align 1

; Function Attrs: noinline nounwind uwtable
define dso_local void @main() #0 {
  %1 = alloca [100 x i32], align 16
  %2 = alloca [100 x i32], align 16
  %3 = getelementptr inbounds [100 x i32], [100 x i32]* %1, i64 0, i64 0
  %4 = getelementptr inbounds [100 x i32], [100 x i32]* %2, i64 0, i64 0
  call void @sca(i32* %3, i32* %4)
  ret void
}

; Function Attrs: noinline nounwind uwtable
define dso_local void @sca(i32* %0, i32* %1) #0 {
  %3 = alloca i32*, align 8
  %4 = alloca i32*, align 8
  %5 = alloca i32, align 4
  %6 = alloca i32, align 4
  %7 = alloca i32, align 4
  %8 = alloca i32, align 4
  %9 = alloca i32, align 4
  store i32* %0, i32** %3, align 8
  store i32* %1, i32** %4, align 8
  %10 = call i32 (i8*, ...) @__isoc99_scanf(i8* getelementptr inbounds ([6 x i8], [6 x i8]* @.str, i64 0, i64 0), i32* %5, i32* %6)
  store i32 1, i32* %7, align 4
  br label %11

11:                                               ; preds = %21, %2
  %12 = load i32, i32* %7, align 4
  %13 = load i32, i32* %5, align 4
  %14 = icmp sle i32 %12, %13
  br i1 %14, label %15, label %24

15:                                               ; preds = %11
  %16 = load i32*, i32** %3, align 8
  %17 = load i32, i32* %7, align 4
  %18 = sext i32 %17 to i64
  %19 = getelementptr inbounds i32, i32* %16, i64 %18
  %20 = call i32 (i8*, ...) @__isoc99_scanf(i8* getelementptr inbounds ([3 x i8], [3 x i8]* @.str.1, i64 0, i64 0), i32* %19)
  br label %21

21:                                               ; preds = %15
  %22 = load i32, i32* %7, align 4
  %23 = add nsw i32 %22, 1
  store i32 %23, i32* %7, align 4
  br label %11

24:                                               ; preds = %11
  store i32 1, i32* %7, align 4
  br label %25

25:                                               ; preds = %35, %24
  %26 = load i32, i32* %7, align 4
  %27 = load i32, i32* %6, align 4
  %28 = icmp sle i32 %26, %27
  br i1 %28, label %29, label %38

29:                                               ; preds = %25
  %30 = load i32*, i32** %4, align 8
  %31 = load i32, i32* %7, align 4
  %32 = sext i32 %31 to i64
  %33 = getelementptr inbounds i32, i32* %30, i64 %32
  %34 = call i32 (i8*, ...) @__isoc99_scanf(i8* getelementptr inbounds ([3 x i8], [3 x i8]* @.str.1, i64 0, i64 0), i32* %33)
  br label %35

35:                                               ; preds = %29
  %36 = load i32, i32* %7, align 4
  %37 = add nsw i32 %36, 1
  store i32 %37, i32* %7, align 4
  br label %25

38:                                               ; preds = %25
  store i32 1, i32* %7, align 4
  br label %39

39:                                               ; preds = %90, %38
  %40 = load i32, i32* %7, align 4
  %41 = load i32, i32* %5, align 4
  %42 = icmp sle i32 %40, %41
  br i1 %42, label %43, label %93

43:                                               ; preds = %39
  store i32 1, i32* %8, align 4
  br label %44

44:                                               ; preds = %86, %43
  %45 = load i32, i32* %8, align 4
  %46 = load i32, i32* %5, align 4
  %47 = load i32, i32* %7, align 4
  %48 = sub nsw i32 %46, %47
  %49 = icmp sle i32 %45, %48
  br i1 %49, label %50, label %89

50:                                               ; preds = %44
  %51 = load i32*, i32** %3, align 8
  %52 = load i32, i32* %8, align 4
  %53 = sext i32 %52 to i64
  %54 = getelementptr inbounds i32, i32* %51, i64 %53
  %55 = load i32, i32* %54, align 4
  %56 = load i32*, i32** %3, align 8
  %57 = load i32, i32* %8, align 4
  %58 = add nsw i32 %57, 1
  %59 = sext i32 %58 to i64
  %60 = getelementptr inbounds i32, i32* %56, i64 %59
  %61 = load i32, i32* %60, align 4
  %62 = icmp sgt i32 %55, %61
  br i1 %62, label %63, label %85

63:                                               ; preds = %50
  %64 = load i32*, i32** %3, align 8
  %65 = load i32, i32* %8, align 4
  %66 = sext i32 %65 to i64
  %67 = getelementptr inbounds i32, i32* %64, i64 %66
  %68 = load i32, i32* %67, align 4
  store i32 %68, i32* %9, align 4
  %69 = load i32*, i32** %3, align 8
  %70 = load i32, i32* %8, align 4
  %71 = add nsw i32 %70, 1
  %72 = sext i32 %71 to i64
  %73 = getelementptr inbounds i32, i32* %69, i64 %72
  %74 = load i32, i32* %73, align 4
  %75 = load i32*, i32** %3, align 8
  %76 = load i32, i32* %8, align 4
  %77 = sext i32 %76 to i64
  %78 = getelementptr inbounds i32, i32* %75, i64 %77
  store i32 %74, i32* %78, align 4
  %79 = load i32, i32* %9, align 4
  %80 = load i32*, i32** %3, align 8
  %81 = load i32, i32* %8, align 4
  %82 = add nsw i32 %81, 1
  %83 = sext i32 %82 to i64
  %84 = getelementptr inbounds i32, i32* %80, i64 %83
  store i32 %79, i32* %84, align 4
  br label %85

85:                                               ; preds = %63, %50
  br label %86

86:                                               ; preds = %85
  %87 = load i32, i32* %8, align 4
  %88 = add nsw i32 %87, 1
  store i32 %88, i32* %8, align 4
  br label %44

89:                                               ; preds = %44
  br label %90

90:                                               ; preds = %89
  %91 = load i32, i32* %7, align 4
  %92 = add nsw i32 %91, 1
  store i32 %92, i32* %7, align 4
  br label %39

93:                                               ; preds = %39
  store i32 1, i32* %7, align 4
  br label %94

94:                                               ; preds = %105, %93
  %95 = load i32, i32* %7, align 4
  %96 = load i32, i32* %5, align 4
  %97 = icmp sle i32 %95, %96
  br i1 %97, label %98, label %108

98:                                               ; preds = %94
  %99 = load i32*, i32** %3, align 8
  %100 = load i32, i32* %7, align 4
  %101 = sext i32 %100 to i64
  %102 = getelementptr inbounds i32, i32* %99, i64 %101
  %103 = load i32, i32* %102, align 4
  %104 = call i32 (i8*, ...) @printf(i8* getelementptr inbounds ([4 x i8], [4 x i8]* @.str.2, i64 0, i64 0), i32 %103)
  br label %105

105:                                              ; preds = %98
  %106 = load i32, i32* %7, align 4
  %107 = add nsw i32 %106, 1
  store i32 %107, i32* %7, align 4
  br label %94

108:                                              ; preds = %94
  store i32 1, i32* %7, align 4
  br label %109

109:                                              ; preds = %160, %108
  %110 = load i32, i32* %7, align 4
  %111 = load i32, i32* %6, align 4
  %112 = icmp sle i32 %110, %111
  br i1 %112, label %113, label %163

113:                                              ; preds = %109
  store i32 1, i32* %8, align 4
  br label %114

114:                                              ; preds = %156, %113
  %115 = load i32, i32* %8, align 4
  %116 = load i32, i32* %6, align 4
  %117 = load i32, i32* %7, align 4
  %118 = sub nsw i32 %116, %117
  %119 = icmp sle i32 %115, %118
  br i1 %119, label %120, label %159

120:                                              ; preds = %114
  %121 = load i32*, i32** %4, align 8
  %122 = load i32, i32* %8, align 4
  %123 = sext i32 %122 to i64
  %124 = getelementptr inbounds i32, i32* %121, i64 %123
  %125 = load i32, i32* %124, align 4
  %126 = load i32*, i32** %4, align 8
  %127 = load i32, i32* %8, align 4
  %128 = add nsw i32 %127, 1
  %129 = sext i32 %128 to i64
  %130 = getelementptr inbounds i32, i32* %126, i64 %129
  %131 = load i32, i32* %130, align 4
  %132 = icmp sgt i32 %125, %131
  br i1 %132, label %133, label %155

133:                                              ; preds = %120
  %134 = load i32*, i32** %4, align 8
  %135 = load i32, i32* %8, align 4
  %136 = sext i32 %135 to i64
  %137 = getelementptr inbounds i32, i32* %134, i64 %136
  %138 = load i32, i32* %137, align 4
  store i32 %138, i32* %9, align 4
  %139 = load i32*, i32** %4, align 8
  %140 = load i32, i32* %8, align 4
  %141 = add nsw i32 %140, 1
  %142 = sext i32 %141 to i64
  %143 = getelementptr inbounds i32, i32* %139, i64 %142
  %144 = load i32, i32* %143, align 4
  %145 = load i32*, i32** %4, align 8
  %146 = load i32, i32* %8, align 4
  %147 = sext i32 %146 to i64
  %148 = getelementptr inbounds i32, i32* %145, i64 %147
  store i32 %144, i32* %148, align 4
  %149 = load i32, i32* %9, align 4
  %150 = load i32*, i32** %4, align 8
  %151 = load i32, i32* %8, align 4
  %152 = add nsw i32 %151, 1
  %153 = sext i32 %152 to i64
  %154 = getelementptr inbounds i32, i32* %150, i64 %153
  store i32 %149, i32* %154, align 4
  br label %155

155:                                              ; preds = %133, %120
  br label %156

156:                                              ; preds = %155
  %157 = load i32, i32* %8, align 4
  %158 = add nsw i32 %157, 1
  store i32 %158, i32* %8, align 4
  br label %114

159:                                              ; preds = %114
  br label %160

160:                                              ; preds = %159
  %161 = load i32, i32* %7, align 4
  %162 = add nsw i32 %161, 1
  store i32 %162, i32* %7, align 4
  br label %109

163:                                              ; preds = %109
  store i32 1, i32* %7, align 4
  br label %164

164:                                              ; preds = %175, %163
  %165 = load i32, i32* %7, align 4
  %166 = load i32, i32* %6, align 4
  %167 = icmp slt i32 %165, %166
  br i1 %167, label %168, label %178

168:                                              ; preds = %164
  %169 = load i32*, i32** %4, align 8
  %170 = load i32, i32* %7, align 4
  %171 = sext i32 %170 to i64
  %172 = getelementptr inbounds i32, i32* %169, i64 %171
  %173 = load i32, i32* %172, align 4
  %174 = call i32 (i8*, ...) @printf(i8* getelementptr inbounds ([4 x i8], [4 x i8]* @.str.2, i64 0, i64 0), i32 %173)
  br label %175

175:                                              ; preds = %168
  %176 = load i32, i32* %7, align 4
  %177 = add nsw i32 %176, 1
  store i32 %177, i32* %7, align 4
  br label %164

178:                                              ; preds = %164
  %179 = load i32*, i32** %4, align 8
  %180 = load i32, i32* %6, align 4
  %181 = sext i32 %180 to i64
  %182 = getelementptr inbounds i32, i32* %179, i64 %181
  %183 = load i32, i32* %182, align 4
  %184 = call i32 (i8*, ...) @printf(i8* getelementptr inbounds ([3 x i8], [3 x i8]* @.str.1, i64 0, i64 0), i32 %183)
  ret void
}

declare dso_local i32 @__isoc99_scanf(i8*, ...) #1

declare dso_local i32 @printf(i8*, ...) #1


!llvm.module.flags = !{!0}
!llvm.ident = !{!1}

!0 = !{i32 1, !"wchar_size", i32 4}
!1 = !{!"clang version 10.0.0-4ubuntu1 "}
